target datalayout = "e-m:e-p270:32:32-p271:32:32-p272:64:64-i64:64-i128:128-f80:128-n8:16:32:64-S128"
target triple = "x86_64-pc-linux-gnu"

%union.AVRefStructOpaque = type { ptr }
%struct.RefCount = type { i64, %union.AVRefStructOpaque, ptr, ptr }

; Function Attrs: nounwind uwtable
define internal ptr @get_userdata(ptr noundef %0) #0 {
  %2 = alloca ptr, align 8
  store ptr %0, ptr %2, align 8, !tbaa !10
  %3 = load ptr, ptr %2, align 8, !tbaa !10
  %4 = getelementptr inbounds nuw i8, ptr %3, i64 32
  ret ptr %4
}

; Function Attrs: nounwind uwtable
define internal void @refcount_init(ptr noundef %0, ptr %1, ptr noundef %2) #0 {
  %4 = alloca %union.AVRefStructOpaque, align 8
  %5 = alloca ptr, align 8
  %6 = alloca ptr, align 8
  %7 = getelementptr inbounds nuw %union.AVRefStructOpaque, ptr %4, i32 0, i32 0
  store ptr %1, ptr %7, align 8
  store ptr %0, ptr %5, align 8, !tbaa !12
  store ptr %2, ptr %6, align 8, !tbaa !10
  %8 = load ptr, ptr %5, align 8, !tbaa !12
  %9 = getelementptr inbounds nuw %struct.RefCount, ptr %8, i32 0, i32 0
  store i64 1, ptr %9, align 8, !tbaa !14
  %10 = load ptr, ptr %5, align 8, !tbaa !12
  %11 = getelementptr inbounds nuw %struct.RefCount, ptr %10, i32 0, i32 1
  call void @llvm.memcpy.p0.p0.i64(ptr align 8 %11, ptr align 8 %4, i64 8, i1 false), !tbaa.struct !15
  %12 = load ptr, ptr %6, align 8, !tbaa !10
  %13 = load ptr, ptr %5, align 8, !tbaa !12
  %14 = getelementptr inbounds nuw %struct.RefCount, ptr %13, i32 0, i32 2
  store ptr %12, ptr %14, align 8, !tbaa !16
  %15 = load ptr, ptr %5, align 8, !tbaa !12
  %16 = getelementptr inbounds nuw %struct.RefCount, ptr %15, i32 0, i32 3
  store ptr @av_free, ptr %16, align 8, !tbaa !18
  ret void
}

; Function Attrs: nounwind uwtable
define ptr @av_refstruct_alloc_ext_c(i64 noundef %0, i32 noundef %1, ptr %2, ptr noundef %3) #0 {
  %5 = alloca ptr, align 8
  %6 = alloca %union.AVRefStructOpaque, align 8
  %7 = alloca i64, align 8
  %8 = alloca i32, align 4
  %9 = alloca ptr, align 8
  %10 = alloca ptr, align 8
  %11 = alloca ptr, align 8
  %12 = alloca i32, align 4
  %13 = getelementptr inbounds nuw %union.AVRefStructOpaque, ptr %6, i32 0, i32 0
  store ptr %2, ptr %13, align 8
  store i64 %0, ptr %7, align 8, !tbaa !4
  store i32 %1, ptr %8, align 4, !tbaa !8
  store ptr %3, ptr %9, align 8, !tbaa !10
  call void @llvm.lifetime.start.p0(i64 8, ptr %10) #7
  call void @llvm.lifetime.start.p0(i64 8, ptr %11) #7
  %14 = load i64, ptr %7, align 8, !tbaa !4
  %15 = icmp ugt i64 %14, -33
  br i1 %15, label %16, label %17

16:                                               ; preds = %4
  store ptr null, ptr %5, align 8
  store i32 1, ptr %12, align 4
  br label %39

17:                                               ; preds = %4
  %18 = load i64, ptr %7, align 8, !tbaa !4
  %19 = add i64 %18, 32
  %20 = call noalias ptr @av_malloc(i64 noundef %19)
  store ptr %20, ptr %10, align 8, !tbaa !10
  %21 = load ptr, ptr %10, align 8, !tbaa !10
  %22 = icmp ne ptr %21, null
  br i1 %22, label %24, label %23

23:                                               ; preds = %17
  store ptr null, ptr %5, align 8
  store i32 1, ptr %12, align 4
  br label %39

24:                                               ; preds = %17
  %25 = load ptr, ptr %10, align 8, !tbaa !10
  %26 = load ptr, ptr %9, align 8, !tbaa !10
  %27 = getelementptr inbounds nuw %union.AVRefStructOpaque, ptr %6, i32 0, i32 0
  %28 = load ptr, ptr %27, align 8
  call void @refcount_init(ptr noundef %25, ptr %28, ptr noundef %26)
  %29 = load ptr, ptr %10, align 8, !tbaa !10
  %30 = call ptr @get_userdata(ptr noundef %29)
  store ptr %30, ptr %11, align 8, !tbaa !10
  %31 = load i32, ptr %8, align 4, !tbaa !8
  %32 = and i32 %31, 1
  %33 = icmp ne i32 %32, 0
  br i1 %33, label %37, label %34

34:                                               ; preds = %24
  %35 = load ptr, ptr %11, align 8, !tbaa !10
  %36 = load i64, ptr %7, align 8, !tbaa !4
  call void @llvm.memset.p0.i64(ptr align 1 %35, i8 0, i64 %36, i1 false)
  br label %37

37:                                               ; preds = %34, %24
  %38 = load ptr, ptr %11, align 8, !tbaa !10
  store ptr %38, ptr %5, align 8
  store i32 1, ptr %12, align 4
  br label %39

39:                                               ; preds = %37, %23, %16
  call void @llvm.lifetime.end.p0(i64 8, ptr %11) #7
  call void @llvm.lifetime.end.p0(i64 8, ptr %10) #7
  %40 = load ptr, ptr %5, align 8
  ret ptr %40
}