; Function Attrs: nounwind uwtable
define noalias ptr @av_refstruct_alloc_ext_c(i64 noundef %0, i32 noundef %1, ptr %2, ptr noundef %3) local_unnamed_addr #0 {
  %5 = icmp ugt i64 %0, -33
  br i1 %5, label %16, label %6

6:                                                ; preds = %4
  %7 = add nuw i64 %0, 32
  %8 = tail call noalias ptr @av_malloc(i64 noundef %7) #5
  %.not = icmp eq ptr %8, null
  br i1 %.not, label %16, label %9

9:                                                ; preds = %6
  store i64 1, ptr %8, align 8, !tbaa !4
  %10 = getelementptr inbounds nuw i8, ptr %8, i64 8
  store ptr %2, ptr %10, align 8, !tbaa !4
  %11 = getelementptr inbounds nuw i8, ptr %8, i64 16
  store ptr %3, ptr %11, align 8, !tbaa !7
  %12 = getelementptr inbounds nuw i8, ptr %8, i64 24
  store ptr @av_free, ptr %12, align 8, !tbaa !10
  %13 = getelementptr inbounds nuw i8, ptr %8, i64 32
  %14 = and i32 %1, 1
  %.not12 = icmp eq i32 %14, 0
  br i1 %.not12, label %15, label %16

15:                                               ; preds = %9
  tail call void @llvm.memset.p0.i64(ptr nonnull align 1 %13, i8 0, i64 %0, i1 false)
  br label %16

16:                                               ; preds = %9, %15, %6, %4
  %.0 = phi ptr [ null, %4 ], [ null, %6 ], [ %13, %15 ], [ %13, %9 ]
  ret ptr %.0
}